; Function Attrs: mustprogress uwtable
define hidden void @_ZN8LogGuardC2Ev(ptr noundef nonnull writeonly align 4 captures(none) dereferenceable(4) initializes((0, 4)) %0) unnamed_addr #2 align 2 personality ptr @__gxx_personality_v0 {
_ZNSt8functionIFvPKcEEC2IPS2_vEEOT_.exit:
  %1 = alloca %"class.std::function", align 8
  %2 = tail call noundef i32 @_ZN19OpenColorIO_v2_5dev15GetLoggingLevelEv()
  store i32 %2, ptr %0, align 4, !tbaa !12
  tail call void @_ZN19OpenColorIO_v2_5dev15SetLoggingLevelENS_12LoggingLevelE(i32 noundef 3)
  %3 = getelementptr inbounds nuw i8, ptr %1, i64 8
  store i64 0, ptr %3, align 8
  %4 = getelementptr inbounds nuw i8, ptr %1, i64 24
  %5 = getelementptr inbounds nuw i8, ptr %1, i64 16
  store ptr @_Z21CustomLoggingFunctionPKc, ptr %1, align 8, !tbaa !15
  store ptr @_ZNSt17_Function_handlerIFvPKcEPS2_E9_M_invokeERKSt9_Any_dataOS1_, ptr %4, align 8, !tbaa !16
  store ptr @_ZNSt17_Function_handlerIFvPKcEPS2_E10_M_managerERSt9_Any_dataRKS5_St18_Manager_operation, ptr %5, align 8, !tbaa !19
  invoke void @_ZN19OpenColorIO_v2_5dev18SetLoggingFunctionESt8functionIFvPKcEE(ptr noundef nonnull %1)
          to label %6 unwind label %13

6:                                                ; preds = %_ZNSt8functionIFvPKcEEC2IPS2_vEEOT_.exit
  %7 = load ptr, ptr %5, align 8, !tbaa !19
  %.not.i2 = icmp eq ptr %7, null
  br i1 %.not.i2, label %_ZNSt14_Function_baseD2Ev.exit, label %8

8:                                                ; preds = %6
  %9 = invoke noundef zeroext i1 %7(ptr noundef nonnull align 8 dereferenceable(32) %1, ptr noundef nonnull align 8 dereferenceable(32) %1, i32 noundef 3)
          to label %_ZNSt14_Function_baseD2Ev.exit unwind label %10

10:                                               ; preds = %8
  %11 = landingpad { ptr, i32 }
          catch ptr null
  %12 = extractvalue { ptr, i32 } %11, 0
  call void @__clang_call_terminate(ptr %12) #14
  unreachable

_ZNSt14_Function_baseD2Ev.exit:                   ; preds = %6, %8
  ret void

13:                                               ; preds = %_ZNSt8functionIFvPKcEEC2IPS2_vEEOT_.exit
  %14 = landingpad { ptr, i32 }
          cleanup
  %15 = load ptr, ptr %5, align 8, !tbaa !19
  %.not.i3 = icmp eq ptr %15, null
  br i1 %.not.i3, label %_ZNSt14_Function_baseD2Ev.exit4, label %16

16:                                               ; preds = %13
  %17 = invoke noundef zeroext i1 %15(ptr noundef nonnull align 8 dereferenceable(32) %1, ptr noundef nonnull align 8 dereferenceable(32) %1, i32 noundef 3)
          to label %_ZNSt14_Function_baseD2Ev.exit4 unwind label %18

18:                                               ; preds = %16
  %19 = landingpad { ptr, i32 }
          catch ptr null
  %20 = extractvalue { ptr, i32 } %19, 0
  call void @__clang_call_terminate(ptr %20) #14
  unreachable

_ZNSt14_Function_baseD2Ev.exit4:                  ; preds = %13, %16
  resume { ptr, i32 } %14
}